; ModuleID = '19/1293.c'
source_filename = "19/1293.c"
target datalayout = "e-m:e-p270:32:32-p271:32:32-p272:64:64-i64:64-f80:128-n8:16:32:64-S128"
target triple = "x86_64-pc-linux-gnu"

@.str = private unnamed_addr constant [3 x i8] c"%s\00", align 1
@.str.1 = private unnamed_addr constant [5 x i8] c"%s%s\00", align 1
@.str.2 = private unnamed_addr constant [1 x i8] zeroinitializer, align 1
@.str.3 = private unnamed_addr constant [2 x i8] c" \00", align 1

; Function Attrs: noinline nounwind uwtable
define dso_local void @main() #0 {
  %1 = alloca i32, align 4
  %2 = alloca i32, align 4
  %3 = alloca [100 x i8]*, align 8
  %4 = alloca [100 x [100 x i8]], align 16
  %5 = alloca i8*, align 8
  %6 = alloca i8*, align 8
  store i32 0, i32* %1, align 4
  %7 = getelementptr inbounds [100 x [100 x i8]], [100 x [100 x i8]]* %4, i64 0, i64 0
  store [100 x i8]* %7, [100 x i8]** %3, align 8
  br label %8

8:                                                ; preds = %15, %0
  %9 = load [100 x i8]*, [100 x i8]** %3, align 8
  %10 = load i32, i32* %1, align 4
  %11 = sext i32 %10 to i64
  %12 = getelementptr inbounds [100 x i8], [100 x i8]* %9, i64 %11
  %13 = call i32 (i8*, ...) @__isoc99_scanf(i8* getelementptr inbounds ([3 x i8], [3 x i8]* @.str, i64 0, i64 0), [100 x i8]* %12)
  %14 = icmp ne i32 %13, -1
  br i1 %14, label %15, label %18

15:                                               ; preds = %8
  %16 = load i32, i32* %1, align 4
  %17 = add nsw i32 %16, 1
  store i32 %17, i32* %1, align 4
  br label %8

18:                                               ; preds = %8
  %19 = load i32, i32* %1, align 4
  %20 = add nsw i32 %19, -1
  store i32 %20, i32* %1, align 4
  %21 = call noalias i8* @malloc(i64 10000) #4
  store i8* %21, i8** %5, align 8
  %22 = call noalias i8* @malloc(i64 10000) #4
  store i8* %22, i8** %6, align 8
  %23 = load [100 x i8]*, [100 x i8]** %3, align 8
  %24 = load i32, i32* %1, align 4
  %25 = sext i32 %24 to i64
  %26 = getelementptr inbounds [100 x i8], [100 x i8]* %23, i64 %25
  %27 = bitcast [100 x i8]* %26 to i8*
  store i8* %27, i8** %6, align 8
  %28 = load [100 x i8]*, [100 x i8]** %3, align 8
  %29 = load i32, i32* %1, align 4
  %30 = sext i32 %29 to i64
  %31 = getelementptr inbounds [100 x i8], [100 x i8]* %28, i64 %30
  %32 = getelementptr inbounds [100 x i8], [100 x i8]* %31, i64 -1
  %33 = bitcast [100 x i8]* %32 to i8*
  store i8* %33, i8** %5, align 8
  store i32 0, i32* %2, align 4
  br label %34

34:                                               ; preds = %57, %18
  %35 = load i32, i32* %2, align 4
  %36 = load i32, i32* %1, align 4
  %37 = sub nsw i32 %36, 1
  %38 = icmp slt i32 %35, %37
  br i1 %38, label %39, label %60

39:                                               ; preds = %34
  %40 = load [100 x i8]*, [100 x i8]** %3, align 8
  %41 = load i32, i32* %2, align 4
  %42 = sext i32 %41 to i64
  %43 = getelementptr inbounds [100 x i8], [100 x i8]* %40, i64 %42
  %44 = bitcast [100 x i8]* %43 to i8*
  %45 = load i8*, i8** %5, align 8
  %46 = call i32 @strcmp(i8* %44, i8* %45) #5
  %47 = icmp eq i32 %46, 0
  br i1 %47, label %48, label %56

48:                                               ; preds = %39
  %49 = load [100 x i8]*, [100 x i8]** %3, align 8
  %50 = load i32, i32* %2, align 4
  %51 = sext i32 %50 to i64
  %52 = getelementptr inbounds [100 x i8], [100 x i8]* %49, i64 %51
  %53 = bitcast [100 x i8]* %52 to i8*
  %54 = load i8*, i8** %6, align 8
  %55 = call i8* @strcpy(i8* %53, i8* %54) #4
  br label %56

56:                                               ; preds = %48, %39
  br label %57

57:                                               ; preds = %56
  %58 = load i32, i32* %2, align 4
  %59 = add nsw i32 %58, 1
  store i32 %59, i32* %2, align 4
  br label %34

60:                                               ; preds = %34
  store i32 0, i32* %2, align 4
  br label %61

61:                                               ; preds = %78, %60
  %62 = load i32, i32* %2, align 4
  %63 = load i32, i32* %1, align 4
  %64 = sub nsw i32 %63, 1
  %65 = icmp slt i32 %62, %64
  br i1 %65, label %66, label %81

66:                                               ; preds = %61
  %67 = load [100 x i8]*, [100 x i8]** %3, align 8
  %68 = load i32, i32* %2, align 4
  %69 = sext i32 %68 to i64
  %70 = getelementptr inbounds [100 x i8], [100 x i8]* %67, i64 %69
  %71 = load i32, i32* %2, align 4
  %72 = load i32, i32* %1, align 4
  %73 = sub nsw i32 %72, 2
  %74 = icmp eq i32 %71, %73
  %75 = zext i1 %74 to i64
  %76 = select i1 %74, i8* getelementptr inbounds ([1 x i8], [1 x i8]* @.str.2, i64 0, i64 0), i8* getelementptr inbounds ([2 x i8], [2 x i8]* @.str.3, i64 0, i64 0)
  %77 = call i32 (i8*, ...) @printf(i8* getelementptr inbounds ([5 x i8], [5 x i8]* @.str.1, i64 0, i64 0), [100 x i8]* %70, i8* %76)
  br label %78

78:                                               ; preds = %66
  %79 = load i32, i32* %2, align 4
  %80 = add nsw i32 %79, 1
  store i32 %80, i32* %2, align 4
  br label %61

81:                                               ; preds = %61
  ret void
}

declare dso_local i32 @__isoc99_scanf(i8*, ...) #1

; Function Attrs: nounwind
declare dso_local noalias i8* @malloc(i64) #2

; Function Attrs: nounwind readonly
declare dso_local i32 @strcmp(i8*, i8*) #3

; Function Attrs: nounwind
declare dso_local i8* @strcpy(i8*, i8*) #2

declare dso_local i32 @printf(i8*, ...) #1


!llvm.module.flags = !{!0}
!llvm.ident = !{!1}

!0 = !{i32 1, !"wchar_size", i32 4}
!1 = !{!"clang version 10.0.0-4ubuntu1 "}
