; ModuleID = 'source-C-CXX/18/1293.c'
source_filename = "source-C-CXX/18/1293.c"
target datalayout = "e-m:e-p270:32:32-p271:32:32-p272:64:64-i64:64-f80:128-n8:16:32:64-S128"
target triple = "x86_64-pc-linux-gnu"

@.str = private unnamed_addr constant [3 x i8] c"%s\00", align 1
@.str.1 = private unnamed_addr constant [5 x i8] c"%s%s\00", align 1
@.str.2 = private unnamed_addr constant [1 x i8] zeroinitializer, align 1
@.str.3 = private unnamed_addr constant [2 x i8] c" \00", align 1

; Function Attrs: nofree nounwind sspstrong uwtable
define dso_local void @main() local_unnamed_addr #0 {
  %1 = alloca [100 x [100 x i8]], align 16
  %2 = getelementptr inbounds [100 x [100 x i8]], [100 x [100 x i8]]* %1, i64 0, i64 0, i64 0
  call void @llvm.lifetime.start.p0i8(i64 10000, i8* nonnull %2) #6
  br label %3

3:                                                ; preds = %3, %0
  %4 = phi i64 [ %8, %3 ], [ 0, %0 ]
  %5 = getelementptr inbounds [100 x [100 x i8]], [100 x [100 x i8]]* %1, i64 0, i64 %4
  %6 = call i32 (i8*, ...) @__isoc99_scanf(i8* getelementptr inbounds ([3 x i8], [3 x i8]* @.str, i64 0, i64 0), [100 x i8]* nonnull %5)
  %7 = icmp eq i32 %6, -1
  %8 = add nuw i64 %4, 1
  br i1 %7, label %9, label %3, !llvm.loop !5

9:                                                ; preds = %3
  %10 = trunc i64 %4 to i32
  %11 = shl i64 %4, 32
  %12 = add i64 %11, -4294967296
  %13 = ashr exact i64 %12, 32
  %14 = getelementptr inbounds [100 x [100 x i8]], [100 x [100 x i8]]* %1, i64 0, i64 %13
  %15 = getelementptr [100 x i8], [100 x i8]* %14, i64 0, i64 0
  %16 = getelementptr inbounds [100 x i8], [100 x i8]* %14, i64 -1, i64 0
  %17 = icmp ugt i32 %10, 2
  br i1 %17, label %18, label %47

18:                                               ; preds = %9
  %19 = add i32 %10, -2
  %20 = call i32 @llvm.smax.i32(i32 %19, i32 1)
  %21 = zext i32 %20 to i64
  br label %29

22:                                               ; preds = %36
  br i1 %17, label %23, label %47

23:                                               ; preds = %22
  %24 = add i64 %4, 4294967293
  %25 = and i64 %24, 4294967295
  %26 = add i32 %10, -2
  %27 = call i32 @llvm.smax.i32(i32 %26, i32 1)
  %28 = zext i32 %27 to i64
  br label %39

29:                                               ; preds = %18, %36
  %30 = phi i64 [ 0, %18 ], [ %37, %36 ]
  %31 = getelementptr inbounds [100 x [100 x i8]], [100 x [100 x i8]]* %1, i64 0, i64 %30, i64 0
  %32 = call i32 @strcmp(i8* noundef nonnull %31, i8* noundef nonnull %16) #7
  %33 = icmp eq i32 %32, 0
  br i1 %33, label %34, label %36

34:                                               ; preds = %29
  %35 = call i8* @strcpy(i8* noundef nonnull %31, i8* noundef nonnull dereferenceable(1) %15) #6
  br label %36

36:                                               ; preds = %29, %34
  %37 = add nuw nsw i64 %30, 1
  %38 = icmp eq i64 %37, %21
  br i1 %38, label %22, label %29, !llvm.loop !7

39:                                               ; preds = %23, %39
  %40 = phi i64 [ 0, %23 ], [ %45, %39 ]
  %41 = getelementptr inbounds [100 x [100 x i8]], [100 x [100 x i8]]* %1, i64 0, i64 %40
  %42 = icmp eq i64 %40, %25
  %43 = select i1 %42, i8* getelementptr inbounds ([1 x i8], [1 x i8]* @.str.2, i64 0, i64 0), i8* getelementptr inbounds ([2 x i8], [2 x i8]* @.str.3, i64 0, i64 0)
  %44 = call i32 (i8*, ...) @printf(i8* nonnull dereferenceable(1) getelementptr inbounds ([5 x i8], [5 x i8]* @.str.1, i64 0, i64 0), [100 x i8]* nonnull %41, i8* %43)
  %45 = add nuw nsw i64 %40, 1
  %46 = icmp eq i64 %45, %28
  br i1 %46, label %47, label %39, !llvm.loop !8

47:                                               ; preds = %39, %9, %22
  call void @llvm.lifetime.end.p0i8(i64 10000, i8* nonnull %2) #6
  ret void
}

; Function Attrs: argmemonly mustprogress nofree nosync nounwind willreturn
declare void @llvm.lifetime.start.p0i8(i64 immarg, i8* nocapture) #1

; Function Attrs: nofree nounwind
declare noundef i32 @__isoc99_scanf(i8* nocapture noundef readonly, ...) local_unnamed_addr #2

; Function Attrs: argmemonly mustprogress nofree nounwind readonly willreturn
declare i32 @strcmp(i8* nocapture, i8* nocapture) local_unnamed_addr #3

; Function Attrs: argmemonly mustprogress nofree nounwind willreturn
declare i8* @strcpy(i8* noalias returned writeonly, i8* noalias nocapture readonly) local_unnamed_addr #4

; Function Attrs: nofree nounwind
declare noundef i32 @printf(i8* nocapture noundef readonly, ...) local_unnamed_addr #2

; Function Attrs: argmemonly mustprogress nofree nosync nounwind willreturn
declare void @llvm.lifetime.end.p0i8(i64 immarg, i8* nocapture) #1

; Function Attrs: nofree nosync nounwind readnone speculatable willreturn
declare i32 @llvm.smax.i32(i32, i32) #5


!llvm.module.flags = !{!0, !1, !2, !3}
!llvm.ident = !{!4}

!0 = !{i32 1, !"wchar_size", i32 4}
!1 = !{i32 7, !"PIC Level", i32 2}
!2 = !{i32 7, !"PIE Level", i32 2}
!3 = !{i32 7, !"uwtable", i32 1}
!4 = !{!"clang version 13.0.0"}
!5 = distinct !{!5, !6}
!6 = !{!"llvm.loop.mustprogress"}
!7 = distinct !{!7, !6}
!8 = distinct !{!8, !6}
